; Function Attrs: mustprogress nofree norecurse nosync nounwind willreturn memory(argmem: write) uwtable
define void @_ZN3re216CharClassBuilderC2Ev(ptr noundef nonnull align 8 dereferenceable(64) %this) unnamed_addr #0 align 2 personality ptr @__gxx_personality_v0 {
entry:
  %0 = getelementptr inbounds i8, ptr %this, i64 24
  store i32 0, ptr %0, align 8
  %_M_parent.i.i.i.i.i = getelementptr inbounds i8, ptr %this, i64 32
  store ptr null, ptr %_M_parent.i.i.i.i.i, align 8
  %_M_left.i.i.i.i.i = getelementptr inbounds i8, ptr %this, i64 40
  store ptr %0, ptr %_M_left.i.i.i.i.i, align 8
  %_M_right.i.i.i.i.i = getelementptr inbounds i8, ptr %this, i64 48
  store ptr %0, ptr %_M_right.i.i.i.i.i, align 8
  %_M_node_count.i.i.i.i.i = getelementptr inbounds i8, ptr %this, i64 56
  store i64 0, ptr %_M_node_count.i.i.i.i.i, align 8
  %nrunes_ = getelementptr inbounds i8, ptr %this, i64 8
  store i32 0, ptr %nrunes_, align 8
  store i32 0, ptr %this, align 8
  %lower_ = getelementptr inbounds i8, ptr %this, i64 4
  store i32 0, ptr %lower_, align 4
  ret void
}